; Function Attrs: mustprogress nounwind uwtable
define noundef i32 @_Z22tMPI_Thread_mutex_initP19tMPI_Thread_mutex_t(ptr noundef writeonly %0) local_unnamed_addr #1 {
  %2 = icmp eq ptr %0, null
  br i1 %2, label %10, label %3

3:                                                ; preds = %1
  %4 = tail call noalias dereferenceable_or_null(40) ptr @malloc(i64 noundef 40) #14
  %5 = getelementptr inbounds i8, ptr %0, i64 64
  store ptr %4, ptr %5, align 8
  %6 = icmp eq ptr %4, null
  br i1 %6, label %10, label %7

7:                                                ; preds = %3
  %8 = tail call i32 @pthread_mutex_init(ptr noundef nonnull %4, ptr noundef null) #13
  %.not = icmp eq i32 %8, 0
  br i1 %.not, label %9, label %10

9:                                                ; preds = %7
  store i32 1, ptr %0, align 8
  br label %10

10:                                               ; preds = %7, %3, %1, %9
  %.0 = phi i32 [ 0, %9 ], [ 22, %1 ], [ 12, %3 ], [ %8, %7 ]
  ret i32 %.0
}